	.file	"memory.c"
	.text
.Ltext0:
	.section	.rodata
	.align 8
.LC0:
	.string	" \n Source is at : %p new string at destination %p \t"
.LC1:
	.string	"Pointer ERROR"
	.text
	.globl	my_memmove
	.type	my_memmove, @function
my_memmove:
.LFB0:
	.file 1 "source/memory.c"
	.loc 1 6 0
	.cfi_startproc
	pushq	%rbp
	.cfi_def_cfa_offset 16
	.cfi_offset 6, -16
	movq	%rsp, %rbp
	.cfi_def_cfa_register 6
	subq	$112, %rsp
	movq	%rdi, -88(%rbp)
	movq	%rsi, -96(%rbp)
	movl	%edx, -100(%rbp)
	.loc 1 6 0
	movq	%fs:40, %rax
	movq	%rax, -8(%rbp)
	xorl	%eax, %eax
	.loc 1 7 0
	movl	$0, -72(%rbp)
	movl	$0, -68(%rbp)
	.loc 1 10 0
	cmpq	$0, -88(%rbp)
	je	.L2
	.loc 1 14 0
	jmp	.L3
.L4:
	.loc 1 16 0
	movl	-72(%rbp), %eax
	leaq	-64(%rbp), %rdx
	addq	%rax, %rdx
	movl	-72(%rbp), %ecx
	movq	-88(%rbp), %rax
	addq	%rcx, %rax
	movzbl	(%rax), %eax
	movb	%al, (%rdx)
	.loc 1 17 0
	addl	$1, -72(%rbp)
.L3:
	.loc 1 14 0
	movl	-72(%rbp), %eax
	cmpl	-100(%rbp), %eax
	jb	.L4
	.loc 1 20 0
	movl	$0, -72(%rbp)
	.loc 1 22 0
	jmp	.L5
.L6:
	.loc 1 24 0
	movl	-72(%rbp), %edx
	movq	-96(%rbp), %rax
	addq	%rax, %rdx
	movl	-72(%rbp), %eax
	leaq	-64(%rbp), %rcx
	addq	%rcx, %rax
	movzbl	(%rax), %eax
	movb	%al, (%rdx)
	.loc 1 25 0
	addl	$1, -72(%rbp)
.L5:
	.loc 1 22 0
	movl	-72(%rbp), %eax
	cmpl	-100(%rbp), %eax
	jb	.L6
	.loc 1 27 0
	movq	-96(%rbp), %rdx
	movq	-88(%rbp), %rax
	movq	%rax, %rsi
	movl	$.LC0, %edi
	movl	$0, %eax
	call	printf
	.loc 1 29 0
	movl	$0, -72(%rbp)
	.loc 1 30 0
	jmp	.L7
.L8:
	.loc 1 32 0
	movl	-72(%rbp), %edx
	movq	-96(%rbp), %rax
	addq	%rdx, %rax
	movzbl	(%rax), %eax
	movzbl	%al, %eax
	movl	%eax, %edi
	call	putchar
	.loc 1 33 0
	addl	$1, -72(%rbp)
.L7:
	.loc 1 30 0
	movl	-72(%rbp), %eax
	cmpl	-100(%rbp), %eax
	jb	.L8
	.loc 1 36 0
	movl	$0, %eax
	jmp	.L10
.L2:
	.loc 1 41 0
	movl	$.LC1, %edi
	movl	$0, %eax
	call	printf
	.loc 1 42 0
	movl	$1, %eax
.L10:
	.loc 1 45 0 discriminator 1
	movq	-8(%rbp), %rsi
	xorq	%fs:40, %rsi
	je	.L11
	.loc 1 45 0 is_stmt 0
	call	__stack_chk_fail
.L11:
	leave
	.cfi_def_cfa 7, 8
	ret
	.cfi_endproc
.LFE0:
	.size	my_memmove, .-my_memmove
	.section	.rodata
.LC2:
	.string	" \n New String is \t"
.LC3:
	.string	"Pointer Error"
	.text
	.globl	my_memzero
	.type	my_memzero, @function
my_memzero:
.LFB1:
	.loc 1 48 0 is_stmt 1
	.cfi_startproc
	pushq	%rbp
	.cfi_def_cfa_offset 16
	.cfi_offset 6, -16
	movq	%rsp, %rbp
	.cfi_def_cfa_register 6
	subq	$32, %rsp
	movq	%rdi, -24(%rbp)
	movl	%esi, -28(%rbp)
	.loc 1 49 0
	movw	$0, -4(%rbp)
	movw	$0, -2(%rbp)
	.loc 1 50 0
	jmp	.L13
.L14:
	.loc 1 52 0
	movzwl	-2(%rbp), %eax
	addl	$1, %eax
	movw	%ax, -2(%rbp)
	.loc 1 53 0
	movzwl	-4(%rbp), %eax
	addl	$1, %eax
	movw	%ax, -4(%rbp)
.L13:
	.loc 1 50 0
	movzwl	-4(%rbp), %edx
	movq	-24(%rbp), %rax
	addq	%rdx, %rax
	movzbl	(%rax), %eax
	testb	%al, %al
	jne	.L14
	.loc 1 56 0
	movw	$0, -4(%rbp)
	.loc 1 57 0
	cmpq	$0, -24(%rbp)
	je	.L15
	.loc 1 59 0
	jmp	.L16
.L17:
	.loc 1 61 0
	movzwl	-4(%rbp), %edx
	movq	-24(%rbp), %rax
	addq	%rdx, %rax
	movb	$0, (%rax)
	.loc 1 62 0
	movzwl	-4(%rbp), %eax
	addl	$1, %eax
	movw	%ax, -4(%rbp)
.L16:
	.loc 1 59 0
	movzwl	-4(%rbp), %eax
	cmpl	-28(%rbp), %eax
	jb	.L17
	.loc 1 65 0
	movw	$0, -4(%rbp)
	.loc 1 66 0
	movl	$.LC2, %edi
	movl	$0, %eax
	call	printf
	.loc 1 67 0
	jmp	.L18
.L19:
	.loc 1 69 0
	movzwl	-4(%rbp), %edx
	movq	-24(%rbp), %rax
	addq	%rdx, %rax
	movzbl	(%rax), %eax
	movzbl	%al, %eax
	movl	%eax, %edi
	call	putchar
	.loc 1 70 0
	movzwl	-4(%rbp), %eax
	addl	$1, %eax
	movw	%ax, -4(%rbp)
.L18:
	.loc 1 67 0
	movzwl	-4(%rbp), %eax
	cmpw	-2(%rbp), %ax
	jb	.L19
	.loc 1 73 0
	movl	$10, %edi
	call	putchar
	.loc 1 75 0
	movl	$0, %eax
	jmp	.L20
.L15:
	.loc 1 80 0
	movl	$.LC3, %edi
	movl	$0, %eax
	call	printf
	.loc 1 81 0
	movl	$1, %eax
.L20:
	.loc 1 83 0
	leave
	.cfi_def_cfa 7, 8
	ret
	.cfi_endproc
.LFE1:
	.size	my_memzero, .-my_memzero
	.section	.rodata
.LC4:
	.string	"\n Reveresed string is \t"
	.text
	.globl	my_reverse
	.type	my_reverse, @function
my_reverse:
.LFB2:
	.loc 1 86 0
	.cfi_startproc
	pushq	%rbp
	.cfi_def_cfa_offset 16
	.cfi_offset 6, -16
	movq	%rsp, %rbp
	.cfi_def_cfa_register 6
	subq	$32, %rsp
	movq	%rdi, -24(%rbp)
	movl	%esi, -28(%rbp)
	.loc 1 87 0
	movw	$0, -4(%rbp)
	.loc 1 89 0
	cmpq	$0, -24(%rbp)
	je	.L22
.LBB2:
	.loc 1 93 0
	movw	$0, -2(%rbp)
	jmp	.L23
.L24:
	.loc 1 95 0 discriminator 3
	movzwl	-2(%rbp), %edx
	movq	-24(%rbp), %rax
	addq	%rdx, %rax
	movzbl	(%rax), %eax
	movb	%al, -5(%rbp)
	.loc 1 96 0 discriminator 3
	movzwl	-2(%rbp), %edx
	movq	-24(%rbp), %rax
	addq	%rax, %rdx
	movl	-28(%rbp), %eax
	movslq	%eax, %rcx
	movzwl	-2(%rbp), %eax
	subq	%rax, %rcx
	movq	%rcx, %rax
	leaq	-1(%rax), %rcx
	movq	-24(%rbp), %rax
	addq	%rcx, %rax
	movzbl	(%rax), %eax
	movb	%al, (%rdx)
	.loc 1 97 0 discriminator 3
	movl	-28(%rbp), %eax
	movslq	%eax, %rdx
	movzwl	-2(%rbp), %eax
	subq	%rax, %rdx
	movq	%rdx, %rax
	leaq	-1(%rax), %rdx
	movq	-24(%rbp), %rax
	addq	%rax, %rdx
	movzbl	-5(%rbp), %eax
	movb	%al, (%rdx)
	.loc 1 93 0 discriminator 3
	movzwl	-2(%rbp), %eax
	addl	$1, %eax
	movw	%ax, -2(%rbp)
.L23:
	.loc 1 93 0 is_stmt 0 discriminator 1
	movzwl	-2(%rbp), %edx
	movl	-28(%rbp), %eax
	movl	%eax, %ecx
	shrl	$31, %ecx
	addl	%ecx, %eax
	sarl	%eax
	cmpl	%eax, %edx
	jl	.L24
	.loc 1 99 0 is_stmt 1
	movl	$.LC4, %edi
	movl	$0, %eax
	call	printf
	.loc 1 100 0
	jmp	.L25
.L26:
	.loc 1 102 0
	movzwl	-4(%rbp), %edx
	movq	-24(%rbp), %rax
	addq	%rdx, %rax
	movzbl	(%rax), %eax
	movsbl	%al, %eax
	movl	%eax, %edi
	call	putchar
	.loc 1 103 0
	movzwl	-4(%rbp), %eax
	addl	$1, %eax
	movw	%ax, -4(%rbp)
.L25:
	.loc 1 100 0
	movzwl	-4(%rbp), %eax
	cmpl	-28(%rbp), %eax
	jl	.L26
	.loc 1 105 0
	movl	$0, %eax
	jmp	.L27
.L22:
.LBE2:
	.loc 1 109 0
	movl	$1, %eax
.L27:
	.loc 1 113 0
	leave
	.cfi_def_cfa 7, 8
	ret
	.cfi_endproc
.LFE2:
	.size	my_reverse, .-my_reverse
.Letext0:
	.file 2 "/usr/include/stdint.h"
	.section	.note.GNU-stack,"",@progbits
